	.arch armv8-a+nosimd
	.file	"spl_fit_tb.c"
	.text
.Ltext0:
	.cfi_sections	.debug_frame
	.section	.text.spl_fit_get_image_name.isra.0,"ax",@progbits
	.align	2
	.type	spl_fit_get_image_name.isra.0, %function
spl_fit_get_image_name.isra.0:
.LFB233:
	.file 1 "common/spl/spl_fit_tb.c"
	.loc 1 94 0
	.cfi_startproc
.LVL0:
	stp	x29, x30, [sp, -80]!
	.cfi_def_cfa_offset 80
	.cfi_offset 29, -80
	.cfi_offset 30, -72
	add	x29, sp, 0
	.cfi_def_cfa_register 29
	stp	x19, x20, [sp, 16]
	.cfi_offset 19, -64
	.cfi_offset 20, -56
	mov	x20, x0
	stp	x21, x22, [sp, 32]
	.cfi_offset 21, -48
	.cfi_offset 22, -40
	mov	w22, w2
	str	x23, [sp, 48]
	.cfi_offset 23, -32
	.loc 1 94 0
	mov	x21, x3
	mov	x23, x1
	.loc 1 103 0
	bl	fit_find_config_node
.LVL1:
	mov	w19, w0
.LVL2:
	.loc 1 104 0
	tbz	w0, #31, .L2
	.loc 1 106 0
	adrp	x0, .LC0
.LVL3:
	add	x0, x0, :lo12:.LC0
	bl	printf
.LVL4:
	.loc 1 110 0
	adrp	x22, .LC1
.LVL5:
	.loc 1 107 0
	mov	w1, w19
	mov	x0, x20
	.loc 1 111 0
	adrp	x23, .LC2
.LVL6:
	.loc 1 107 0
	bl	fdt_first_subnode
.LVL7:
	.loc 1 110 0
	add	x22, x22, :lo12:.LC1
	.loc 1 107 0
	mov	w21, w0
.LVL8:
	.loc 1 111 0
	add	x23, x23, :lo12:.LC2
.L3:
	.loc 1 107 0
	tbz	w21, #31, .L4
.LVL9:
.L1:
	.loc 1 134 0
	mov	w0, w19
	ldr	x23, [sp, 48]
	ldp	x19, x20, [sp, 16]
	ldp	x21, x22, [sp, 32]
	ldp	x29, x30, [sp], 80
	.cfi_remember_state
	.cfi_restore 30
	.cfi_restore 29
	.cfi_restore 23
	.cfi_restore 21
	.cfi_restore 22
	.cfi_restore 19
	.cfi_restore 20
	.cfi_def_cfa 31, 0
	ret
.LVL10:
.L4:
	.cfi_restore_state
	.loc 1 110 0
	add	x3, x29, 76
	mov	x2, x22
	mov	w1, w21
	mov	x0, x20
.LVL11:
	bl	fdt_getprop
.LVL12:
	.loc 1 111 0
	mov	x1, x0
	mov	x0, x23
.LVL13:
	bl	printf
.LVL14:
	.loc 1 109 0
	mov	w1, w21
	mov	x0, x20
	bl	fdt_next_subnode
.LVL15:
	mov	w21, w0
.LVL16:
	b	.L3
.LVL17:
.L2:
	.loc 1 117 0
	mov	w1, w0
	add	x3, x29, 76
	mov	x0, x20
.LVL18:
	mov	x2, x23
	bl	fdt_getprop
.LVL19:
	mov	x20, x0
.LVL20:
	.loc 1 118 0
	cbz	x0, .L8
	mov	w19, 0
.LVL21:
.L6:
	.loc 1 124 0
	cmp	w19, w22
	blt	.L7
	.loc 1 133 0
	mov	w19, 0
.LVL22:
	.loc 1 132 0
	str	x0, [x21]
	b	.L1
.LVL23:
.L7:
	.loc 1 125 0
	mov	w1, 0
	bl	strchr
.LVL24:
	.loc 1 126 0
	adds	x0, x0, 1
.LVL25:
	beq	.L10
	ldrsw	x2, [x29, 76]
	sub	x1, x0, x20
	cmp	x1, x2
	bge	.L10
	.loc 1 124 0
	add	w19, w19, 1
.LVL26:
	b	.L6
.LVL27:
.L8:
	.loc 1 120 0
	mov	w19, -22
.LVL28:
	b	.L1
.LVL29:
.L10:
	.loc 1 128 0
	mov	w19, -7
.LVL30:
	b	.L1
	.cfi_endproc
.LFE233:
	.size	spl_fit_get_image_name.isra.0, .-spl_fit_get_image_name.isra.0
	.section	.text.spl_fit_get_image_node,"ax",@progbits
	.align	2
	.type	spl_fit_get_image_node, %function
spl_fit_get_image_node:
.LFB218:
	.loc 1 150 0
	.cfi_startproc
.LVL31:
	stp	x29, x30, [sp, -48]!
	.cfi_def_cfa_offset 48
	.cfi_offset 29, -48
	.cfi_offset 30, -40
	add	x29, sp, 0
	.cfi_def_cfa_register 29
	stp	x19, x20, [sp, 16]
	.cfi_offset 19, -32
	.cfi_offset 20, -24
	.loc 1 150 0
	mov	w20, w1
	mov	x19, x0
	mov	x1, x2
.LVL32:
	mov	w2, w3
.LVL33:
	.loc 1 155 0
	add	x3, x29, 40
.LVL34:
	bl	spl_fit_get_image_name.isra.0
.LVL35:
	.loc 1 156 0
	cbnz	w0, .L12
	.loc 1 161 0
	ldr	x2, [x29, 40]
	mov	w1, w20
	mov	x0, x19
.LVL36:
	bl	fdt_subnode_offset
.LVL37:
	.loc 1 164 0
	cmp	w0, 0
	mov	w1, -22
	csel	w0, w0, w1, ge
.LVL38:
.L12:
	.loc 1 168 0
	ldp	x19, x20, [sp, 16]
.LVL39:
	ldp	x29, x30, [sp], 48
	.cfi_restore 30
	.cfi_restore 29
	.cfi_restore 19
	.cfi_restore 20
	.cfi_def_cfa 31, 0
	ret
	.cfi_endproc
.LFE218:
	.size	spl_fit_get_image_node, .-spl_fit_get_image_node
	.section	.text.spl_load_fit_image,"ax",@progbits
	.align	2
	.type	spl_load_fit_image, %function
spl_load_fit_image:
.LFB222:
	.loc 1 228 0
	.cfi_startproc
.LVL40:
	stp	x29, x30, [sp, -144]!
	.cfi_def_cfa_offset 144
	.cfi_offset 29, -144
	.cfi_offset 30, -136
	add	x29, sp, 0
	.cfi_def_cfa_register 29
	stp	x19, x20, [sp, 16]
	.cfi_offset 19, -128
	.cfi_offset 20, -120
	mov	x19, x2
	.loc 1 238 0
	add	x2, x29, 144
.LVL41:
	.loc 1 228 0
	stp	x21, x22, [sp, 32]
	stp	x23, x24, [sp, 48]
	.cfi_offset 21, -112
	.cfi_offset 22, -104
	.cfi_offset 23, -96
	.cfi_offset 24, -88
	mov	x22, x0
	stp	x25, x26, [sp, 64]
	.loc 1 238 0
	mov	w0, -1
.LVL42:
	.loc 1 228 0
	stp	x27, x28, [sp, 80]
	.cfi_offset 25, -80
	.cfi_offset 26, -72
	.cfi_offset 27, -64
	.cfi_offset 28, -56
	.loc 1 228 0
	mov	w20, w4
	.loc 1 238 0
	strb	w0, [x2, -41]!
.LVL43:
	.loc 1 228 0
	mov	x25, x1
	mov	x21, x3
	.loc 1 255 0
	mov	w1, w4
.LVL44:
	.loc 1 228 0
	mov	x23, x5
	.loc 1 255 0
	mov	x0, x19
	.loc 1 242 0
	ldr	x24, [x22]
.LVL45:
	.loc 1 255 0
	bl	fit_image_get_comp
.LVL46:
	.loc 1 258 0
	add	x2, x29, 128
	mov	w1, w20
	mov	x0, x19
	bl	fit_image_get_load
.LVL47:
	cbz	w0, .L17
	.loc 1 259 0
	ldr	x0, [x23, 16]
	str	x0, [x29, 128]
.L17:
	.loc 1 261 0
	ldrb	w0, [x29, 103]
	cmp	w0, 0
	ccmp	w0, 6, 4, ne
	beq	.L18
	.loc 1 263 0
	add	x2, x29, 120
	mov	w1, w20
	mov	x0, x19
	bl	fit_image_get_comp_addr
.LVL48:
	cbz	w0, .L19
	.loc 1 264 0
	ldr	x0, [x29, 128]
	add	x0, x0, 1048576
.L57:
	.loc 1 266 0
	str	x0, [x29, 120]
.L19:
	.loc 1 269 0
	add	x2, x29, 104
	mov	w1, w20
	mov	x0, x19
	bl	fit_image_get_data_position
.LVL49:
	cbz	w0, .L20
	.loc 1 271 0
	add	x2, x29, 104
	mov	w1, w20
	mov	x0, x19
	bl	fit_image_get_data_offset
.LVL50:
	cbnz	w0, .L21
	.loc 1 272 0
	ldr	w3, [x29, 104]
	add	w3, w3, w21
	str	w3, [x29, 104]
.LVL51:
.L20:
	.loc 1 278 0
	add	x2, x29, 108
	mov	w1, w20
	mov	x0, x19
	bl	fit_image_get_data_size
.LVL52:
	cbnz	w0, .L41
	.loc 1 281 0
	ldr	x21, [x29, 120]
.LVL53:
	.loc 1 283 0
	mov	x0, 65535
	movk	x0, 0xfeff, lsl 16
	.loc 1 281 0
	add	x21, x21, 63
	and	x26, x21, -64
.LVL54:
	.loc 1 283 0
	cmp	x26, x0
	bls	.L22
	.loc 1 285 0
	ldrsw	x1, [x29, 108]
	mov	x0, 64
	bl	memalign_simple
.LVL55:
	mov	x26, x0
.LVL56:
.L22:
	.loc 1 287 0
	ldp	w27, w21, [x29, 104]
	sxtw	x0, w21
	str	x0, [x29, 112]
.LVL57:
.LBB36:
.LBB37:
	.loc 1 191 0
	ldr	x0, [x22, 24]
	cbz	x0, .L23
	.loc 1 192 0
	and	w27, w27, 63
.L24:
.LVL58:
.LBE37:
.LBE36:
.LBB39:
.LBB40:
	.loc 1 200 0
	add	w21, w21, w27
.LVL59:
	.loc 1 202 0
	cbnz	x0, .L25
	.loc 1 205 0
	ldr	w0, [x22, 16]
	add	w21, w21, w0
.LVL60:
	sub	w21, w21, #1
	sdiv	w21, w21, w0
.L25:
.LVL61:
.LBE40:
.LBE39:
	.loc 1 293 0
	mov	w1, w20
	mov	x0, x19
	bl	fit_image_is_preload
.LVL62:
	.loc 1 295 0
	ands	w28, w0, 255
	beq	.L26
	.loc 1 296 0
	mov	w0, 1
.LVL63:
	strb	w0, [x24, 14]
.L26:
	.loc 1 298 0
	ldp	x0, x4, [x22, 24]
	.loc 1 299 0
	ldr	w1, [x29, 104]
.LVL64:
.LBB41:
.LBB42:
	.loc 1 177 0
	cbz	x0, .L27
	.loc 1 178 0
	and	w1, w1, -64
.LVL65:
.L28:
.LBE42:
.LBE41:
	.loc 1 298 0
	sxtw	x21, w21
	mov	x3, x26
	mov	x2, x21
	add	x1, x25, x1, sxtw
	mov	x0, x22
	blr	x4
.LVL66:
	cmp	x21, x0
	bne	.L38
.LVL67:
	.loc 1 306 0
	cbnz	w28, .L30
	.loc 1 305 0
	add	x26, x26, x27, sxtw
.LVL68:
.L31:
	.loc 1 323 0
	ldrb	w0, [x29, 103]
.LBB44:
.LBB45:
	.file 2 "include/image.h"
	.loc 2 1006 0
	mov	x2, 0
	mov	w1, w20
.LBE45:
.LBE44:
	.loc 1 323 0
	cmp	w0, 0
	ccmp	w0, 6, 4, ne
.LBB49:
.LBB46:
	.loc 2 1006 0
	mov	x0, x19
.LBE46:
.LBE49:
	.loc 1 323 0
	beq	.L33
.LVL69:
.LBB50:
.LBB47:
	.loc 2 1006 0
	bl	fdt_get_name
.LVL70:
.LBE47:
.LBE50:
	.loc 1 324 0
	ldr	x24, [x29, 128]
.LVL71:
.LBB51:
.LBB48:
	.loc 2 1006 0
	mov	x22, x0
.LVL72:
.LBE48:
.LBE51:
	.loc 1 326 0
	mov	x3, 0
	mov	w1, w20
	adrp	x2, .LC5
	mov	x0, x19
	add	x2, x2, :lo12:.LC5
	bl	fdt_getprop
.LVL73:
	.loc 1 324 0
	mov	x3, x0
	mov	x4, x26
	adrp	x0, .LC6
	mov	x2, x24
	mov	x1, x22
	add	x0, x0, :lo12:.LC6
	bl	printf
.LVL74:
.L34:
	.loc 1 336 0
	ldr	x3, [x29, 112]
	mov	x2, x26
	mov	w1, w20
	mov	x0, x19
	bl	fit_image_verify_with_data
.LVL75:
	cbz	w0, .L39
	.loc 1 344 0
	adrp	x0, .LC8
	add	x0, x0, :lo12:.LC8
	bl	puts
.LVL76:
	.loc 1 358 0
	ldr	x2, [x29, 112]
	mov	x1, x26
	ldr	x0, [x29, 128]
	bl	memcpy
.LVL77:
	b	.L32
.LVL78:
.L18:
	.loc 1 266 0
	ldr	x0, [x29, 128]
	b	.L57
.LVL79:
.L23:
.LBB52:
.LBB38:
	.loc 1 194 0
	ldr	w1, [x22, 16]
	sdiv	w2, w27, w1
	msub	w27, w2, w1, w27
	b	.L24
.LVL80:
.L27:
.LBE38:
.LBE52:
.LBB53:
.LBB43:
	.loc 1 180 0
	ldr	w0, [x22, 16]
	sdiv	w1, w1, w0
.LVL81:
	b	.L28
.LVL82:
.L30:
.LBE43:
.LBE53:
	.loc 1 307 0
	ldrb	w0, [x24, 14]
	and	w0, w0, -2
	strb	w0, [x24, 14]
	.loc 1 308 0
	adrp	x0, .LC3
	add	x0, x0, :lo12:.LC3
	bl	printf
.LVL83:
.L32:
	.loc 1 361 0
	cbz	x23, .L40
	.loc 1 362 0
	ldr	x0, [x29, 128]
	.loc 1 364 0
	adrp	x2, .LC9
	.loc 1 362 0
	str	x0, [x23, 16]
	.loc 1 364 0
	add	x2, x2, :lo12:.LC9
	.loc 1 363 0
	ldr	x0, [x29, 112]
	.loc 1 364 0
	mov	w1, w20
	.loc 1 363 0
	str	w0, [x23, 72]
	.loc 1 364 0
	mov	x0, x19
	bl	fdt_getprop_u32
.LVL84:
	str	x0, [x23, 24]
.L40:
	.loc 1 367 0
	mov	w0, 0
	b	.L16
.LVL85:
.L54:
	.loc 1 319 0
	ldr	x26, [x29, 136]
.LVL86:
	b	.L31
.LVL87:
.L33:
.LBB54:
.LBB55:
	.loc 2 1006 0
	bl	fdt_get_name
.LVL88:
.LBE55:
.LBE54:
	.loc 1 329 0
	mov	x1, x0
	ldr	x2, [x29, 128]
	adrp	x0, .LC7
	add	x0, x0, :lo12:.LC7
	bl	printf
.LVL89:
	b	.L34
.LVL90:
.L38:
	.loc 1 301 0
	mov	w0, -5
.LVL91:
.L16:
	.loc 1 368 0
	ldp	x19, x20, [sp, 16]
.LVL92:
	ldp	x21, x22, [sp, 32]
	ldp	x23, x24, [sp, 48]
.LVL93:
	ldp	x25, x26, [sp, 64]
.LVL94:
	ldp	x27, x28, [sp, 80]
	ldp	x29, x30, [sp], 144
	.cfi_remember_state
	.cfi_restore 30
	.cfi_restore 29
	.cfi_restore 27
	.cfi_restore 28
	.cfi_restore 25
	.cfi_restore 26
	.cfi_restore 23
	.cfi_restore 24
	.cfi_restore 21
	.cfi_restore 22
	.cfi_restore 19
	.cfi_restore 20
	.cfi_def_cfa 31, 0
	ret
.LVL95:
.L39:
	.cfi_restore_state
	.loc 1 338 0
	mov	w0, -1
	b	.L16
.LVL96:
.L21:
	.loc 1 313 0
	add	x3, x29, 112
	add	x2, x29, 136
	mov	w1, w20
	mov	x0, x19
	bl	fit_image_get_data
.LVL97:
	cbz	w0, .L54
	.loc 1 314 0
	adrp	x0, .LC4
	add	x0, x0, :lo12:.LC4
	bl	puts
.LVL98:
.L41:
	.loc 1 279 0
	mov	w0, -2
.LVL99:
	b	.L16
	.cfi_endproc
.LFE222:
	.size	spl_load_fit_image, .-spl_load_fit_image
	.section	.text.spl_fit_append_fdt,"ax",@progbits
	.align	2
	.type	spl_fit_append_fdt, %function
spl_fit_append_fdt:
.LFB223:
	.loc 1 373 0
	.cfi_startproc
.LVL100:
	stp	x29, x30, [sp, -160]!
	.cfi_def_cfa_offset 160
	.cfi_offset 29, -160
	.cfi_offset 30, -152
	add	x29, sp, 0
	.cfi_def_cfa_register 29
	stp	x21, x22, [sp, 32]
	.cfi_offset 21, -128
	.cfi_offset 22, -120
	mov	x21, x3
	stp	x19, x20, [sp, 16]
	mov	x22, x1
	stp	x23, x24, [sp, 48]
	.cfi_offset 19, -144
	.cfi_offset 20, -136
	.cfi_offset 23, -112
	.cfi_offset 24, -104
	.loc 1 373 0
	mov	x20, x0
	mov	x23, x2
	mov	x24, x5
	.loc 1 378 0
	mov	w3, 0
.LVL101:
	adrp	x2, .LC10
.LVL102:
	mov	w1, w4
.LVL103:
	add	x2, x2, :lo12:.LC10
	mov	x0, x21
.LVL104:
	bl	spl_fit_get_image_node
.LVL105:
	mov	w19, w0
.LVL106:
	.loc 1 379 0
	tbnz	w0, #31, .L58
	.loc 1 388 0
	ldr	w1, [x20, 72]
	.loc 1 389 0
	mov	w4, w0
	.loc 1 388 0
	ldr	x0, [x20, 16]
.LVL107:
	.loc 1 389 0
	add	x5, x29, 72
	mov	x3, x24
	mov	x2, x21
	.loc 1 388 0
	add	x0, x0, x1
	.loc 1 389 0
	mov	x1, x23
	.loc 1 388 0
	str	x0, [x29, 88]
	.loc 1 389 0
	mov	x0, x22
	bl	spl_load_fit_image
.LVL108:
	mov	w19, w0
.LVL109:
	.loc 1 392 0
	tbnz	w0, #31, .L58
	.loc 1 396 0
	ldr	x0, [x29, 88]
.LVL110:
	.loc 1 399 0
	mov	w1, 8192
	.loc 1 396 0
	str	x0, [x20, 56]
	.loc 1 399 0
	bl	fdt_shrink_to_minimum
.LVL111:
.L58:
	.loc 1 403 0
	mov	w0, w19
	ldp	x19, x20, [sp, 16]
.LVL112:
	ldp	x21, x22, [sp, 32]
.LVL113:
	ldp	x23, x24, [sp, 48]
.LVL114:
	ldp	x29, x30, [sp], 160
	.cfi_restore 30
	.cfi_restore 29
	.cfi_restore 23
	.cfi_restore 24
	.cfi_restore 21
	.cfi_restore 22
	.cfi_restore 19
	.cfi_restore 20
	.cfi_def_cfa 31, 0
	ret
	.cfi_endproc
.LFE223:
	.size	spl_fit_append_fdt, .-spl_fit_append_fdt
	.section	.text.spl_fit_load_blob,"ax",@progbits
	.align	2
	.type	spl_fit_load_blob, %function
spl_fit_load_blob:
.LFB227:
	.loc 1 445 0
	.cfi_startproc
.LVL115:
	stp	x29, x30, [sp, -32]!
	.cfi_def_cfa_offset 32
	.cfi_offset 29, -32
	.cfi_offset 30, -24
	add	x29, sp, 0
	.cfi_def_cfa_register 29
	ldr	w4, [x2, 4]
.LVL116:
.LBB62:
.LBB63:
	.loc 1 202 0
	ldr	x5, [x0, 24]
.LBE63:
.LBE62:
	.loc 1 457 0
	rev	w4, w4
.LVL117:
	.loc 1 445 0
	str	x19, [sp, 16]
	.cfi_offset 19, -16
	.loc 1 458 0
	add	x4, x4, 511
.LVL118:
	.loc 1 478 0
	mov	x19, 65473
	.loc 1 458 0
	and	x4, x4, -512
.LVL119:
	.loc 1 459 0
	str	w4, [x3]
	.loc 1 478 0
	movk	x19, 0x1f, lsl 16
	ldr	w3, [x0, 16]
.LVL120:
	sub	x19, x19, x3, sxtw
	sub	x19, x19, x4
	.loc 1 479 0
	and	x19, x19, -64
.LVL121:
.LBB65:
.LBB64:
	.loc 1 202 0
	cbnz	x5, .L64
	.loc 1 205 0
	add	w2, w3, w4
.LVL122:
	sub	w2, w2, #1
	sdiv	w2, w2, w3
.L62:
.LVL123:
.LBE64:
.LBE65:
	.loc 1 481 0
	ldr	x4, [x0, 32]
.LVL124:
	mov	x3, x19
	sxtw	x2, w2
	blr	x4
.LVL125:
	.loc 1 485 0
	cmp	x0, 0
	.loc 1 488 0
	csel	x0, x19, xzr, ne
.LVL126:
	ldr	x19, [sp, 16]
.LVL127:
	ldp	x29, x30, [sp], 32
	.cfi_remember_state
	.cfi_restore 30
	.cfi_restore 29
	.cfi_restore 19
	.cfi_def_cfa 31, 0
	ret
.LVL128:
.L64:
	.cfi_restore_state
	mov	w2, w4
.LVL129:
	b	.L62
	.cfi_endproc
.LFE227:
	.size	spl_fit_load_blob, .-spl_fit_load_blob
	.section	.text.fit_config_verify,"ax",@progbits
	.align	2
	.weak	fit_config_verify
	.type	fit_config_verify, %function
fit_config_verify:
.LFB207:
	.loc 1 26 0
	.cfi_startproc
.LVL130:
	.loc 1 28 0
	mov	w0, 0
.LVL131:
	ret
	.cfi_endproc
.LFE207:
	.size	fit_config_verify, .-fit_config_verify
	.section	.text.mtd_part_parse,"ax",@progbits
	.align	2
	.weak	mtd_part_parse
	.type	mtd_part_parse, %function
mtd_part_parse:
.LFB208:
	.loc 1 31 0
	.cfi_startproc
.LVL132:
	.loc 1 33 0
	mov	x0, 0
.LVL133:
	ret
	.cfi_endproc
.LFE208:
	.size	mtd_part_parse, .-mtd_part_parse
	.section	.text.spl_get_current_slot,"ax",@progbits
	.align	2
	.weak	spl_get_current_slot
	.type	spl_get_current_slot, %function
spl_get_current_slot:
.LFB209:
	.loc 1 36 0
	.cfi_startproc
.LVL134:
	.loc 1 38 0
	mov	w0, -1
.LVL135:
	ret
	.cfi_endproc
.LFE209:
	.size	spl_get_current_slot, .-spl_get_current_slot
	.section	.text.spl_load_meta,"ax",@progbits
	.align	2
	.weak	spl_load_meta
	.type	spl_load_meta, %function
spl_load_meta:
.LFB210:
	.loc 1 41 0
	.cfi_startproc
.LVL136:
	stp	x29, x30, [sp, -16]!
	.cfi_def_cfa_offset 16
	.cfi_offset 29, -16
	.cfi_offset 30, -8
	.loc 1 42 0
	adrp	x0, .LC11
.LVL137:
	add	x0, x0, :lo12:.LC11
	.loc 1 41 0
	add	x29, sp, 0
	.cfi_def_cfa_register 29
	.loc 1 42 0
	bl	printf
.LVL138:
	.loc 1 45 0
	mov	w0, -1
	ldp	x29, x30, [sp], 16
	.cfi_restore 30
	.cfi_restore 29
	.cfi_def_cfa 31, 0
	ret
	.cfi_endproc
.LFE210:
	.size	spl_load_meta, .-spl_load_meta
	.section	.text.fdt_bootargs_append,"ax",@progbits
	.align	2
	.weak	fdt_bootargs_append
	.type	fdt_bootargs_append, %function
fdt_bootargs_append:
.LFB235:
	.cfi_startproc
	mov	w0, -1
	ret
	.cfi_endproc
.LFE235:
	.size	fdt_bootargs_append, .-fdt_bootargs_append
	.section	.text.spl_ab_bootargs_append_slot,"ax",@progbits
	.align	2
	.weak	spl_ab_bootargs_append_slot
	.type	spl_ab_bootargs_append_slot, %function
spl_ab_bootargs_append_slot:
.LFB212:
	.loc 1 53 0
	.cfi_startproc
.LVL139:
	.loc 1 55 0
	mov	w0, -1
.LVL140:
	ret
	.cfi_endproc
.LFE212:
	.size	spl_ab_bootargs_append_slot, .-spl_ab_bootargs_append_slot
	.section	.text.spl_internal_load_kernel_fit,"ax",@progbits
	.align	2
	.type	spl_internal_load_kernel_fit, %function
spl_internal_load_kernel_fit:
.LFB229:
	.loc 1 503 0
	.cfi_startproc
.LVL141:
	stp	x29, x30, [sp, -208]!
	.cfi_def_cfa_offset 208
	.cfi_offset 29, -208
	.cfi_offset 30, -200
	add	x29, sp, 0
	.cfi_def_cfa_register 29
	stp	x25, x26, [sp, 64]
	.cfi_offset 25, -144
	.cfi_offset 26, -136
	mov	x26, x0
	.loc 1 505 0
	ldrsw	x0, [x1, 16]
.LVL142:
	.loc 1 503 0
	mov	x25, x2
	stp	x27, x28, [sp, 80]
	.cfi_offset 27, -128
	.cfi_offset 28, -120
	mov	w27, w4
	.loc 1 511 0
	ldr	x4, [x1, 32]
.LVL143:
	.loc 1 505 0
	add	x0, x0, 15
	.loc 1 503 0
	stp	x21, x22, [sp, 32]
	.loc 1 505 0
	and	x0, x0, -16
	.loc 1 503 0
	stp	x23, x24, [sp, 48]
	.cfi_offset 21, -176
	.cfi_offset 22, -168
	.cfi_offset 23, -160
	.cfi_offset 24, -152
	mov	x21, x1
.LVL144:
	stp	x19, x20, [sp, 16]
	.cfi_offset 19, -192
	.cfi_offset 20, -184
	.loc 1 505 0
	sub	sp, sp, x0
.LVL145:
	.loc 1 503 0
	mov	x23, x3
	.loc 1 511 0
	mov	x0, x1
	.loc 1 503 0
	mov	x28, x5
	.loc 1 511 0
	mov	x2, 1
.LVL146:
	mov	x3, sp
.LVL147:
	mov	x1, x25
.LVL148:
	blr	x4
.LVL149:
	cmp	x0, 1
	bne	.L86
.LVL150:
	ldr	w1, [sp]
	.loc 1 514 0
	mov	w0, 3536
	movk	w0, 0xedfe, lsl 16
	cmp	w1, w0
	beq	.L75
	.loc 1 515 0
	adrp	x1, .LANCHOR0
	adrp	x0, .LC12
	add	x1, x1, :lo12:.LANCHOR0
	add	x0, x0, :lo12:.LC12
	bl	printf
.LVL151:
.L91:
	.loc 1 530 0
	mov	w19, -22
.L73:
	.loc 1 607 0
	add	sp, x29, 0
.LVL152:
	mov	w0, w19
	ldp	x19, x20, [sp, 16]
	ldp	x21, x22, [sp, 32]
.LVL153:
	ldp	x23, x24, [sp, 48]
.LVL154:
	ldp	x25, x26, [sp, 64]
.LVL155:
	ldp	x27, x28, [sp, 80]
.LVL156:
	ldp	x29, x30, [sp], 208
	.cfi_remember_state
	.cfi_restore 30
	.cfi_restore 29
	.cfi_restore 27
	.cfi_restore 28
	.cfi_restore 25
	.cfi_restore 26
	.cfi_restore 23
	.cfi_restore 24
	.cfi_restore 21
	.cfi_restore 22
	.cfi_restore 19
	.cfi_restore 20
	.cfi_def_cfa 31, 0
	ret
.LVL157:
.L75:
	.cfi_restore_state
	.loc 1 519 0
	add	x3, x29, 116
	mov	x2, sp
	mov	x1, x25
	mov	x0, x21
	bl	spl_fit_load_blob
.LVL158:
	mov	x22, x0
.LVL159:
	.loc 1 520 0
	cbz	x0, .L87
	.loc 1 527 0
	mov	x1, 0
	bl	fit_conf_get_node
.LVL160:
	.loc 1 528 0
	cmp	w0, 0
	bgt	.L76
	.loc 1 529 0
	adrp	x0, .LC13
.LVL161:
	add	x0, x0, :lo12:.LC13
	bl	printf
.LVL162:
	b	.L91
.LVL163:
.L76:
	.loc 1 533 0
	mov	w1, w0
	mov	x0, x22
.LVL164:
	bl	fit_config_verify
.LVL165:
	mov	w19, w0
.LVL166:
	.loc 1 534 0
	cbz	w0, .L77
	.loc 1 535 0
	mov	w1, w0
	adrp	x0, .LC14
.LVL167:
	add	x0, x0, :lo12:.LC14
	bl	printf
.LVL168:
	.loc 1 536 0
	b	.L73
.LVL169:
.L77:
	.loc 1 538 0
	adrp	x0, .LC15
.LVL170:
	add	x0, x0, :lo12:.LC15
	bl	printf
.LVL171:
	.loc 1 540 0
	adrp	x1, .LC16
	mov	x0, x22
	add	x1, x1, :lo12:.LC16
	bl	fdt_path_offset
.LVL172:
	mov	w24, w0
.LVL173:
	.loc 1 541 0
	tbnz	w0, #31, .L88
	.loc 1 562 0 discriminator 1
	adrp	x0, .LC10
.LVL174:
	add	x0, x0, :lo12:.LC10
	mov	x20, 0
	str	x0, [x29, 104]
	.loc 1 587 0 discriminator 1
	adrp	x0, .LC19
	add	x0, x0, :lo12:.LC19
	str	x0, [x29, 96]
.LVL175:
.L78:
	.loc 1 544 0 discriminator 1
	cmp	w27, w20
	ble	.L73
	.loc 1 545 0
	ldr	x2, [x23, x20, lsl 3]
	mov	w3, 0
	mov	w1, w24
	mov	x0, x22
	bl	spl_fit_get_image_node
.LVL176:
	.loc 1 549 0
	tbz	w0, #31, .L79
	.loc 1 550 0
	ldr	x0, [x23, x20, lsl 3]
.LVL177:
	adrp	x1, .LC17
	add	x1, x1, :lo12:.LC17
	bl	strcmp
.LVL178:
	cbnz	w0, .L81
	.loc 1 551 0
	mov	w0, 1
	str	w0, [x28]
.L81:
.LVL179:
	add	x20, x20, 1
.LVL180:
	b	.L78
.LVL181:
.L79:
	.loc 1 556 0
	ldrsw	x3, [x29, 116]
	mov	w4, w0
	add	x5, x29, 120
	mov	x2, x22
	mov	x1, x25
	mov	x0, x21
.LVL182:
	bl	spl_load_fit_image
.LVL183:
	.loc 1 558 0
	cbnz	w0, .L89
	.loc 1 562 0
	ldr	x0, [x23, x20, lsl 3]
.LVL184:
	ldr	x1, [x29, 104]
	bl	strcmp
.LVL185:
	cbnz	w0, .L82
.LBB66:
	.loc 1 563 0
	ldr	x0, [x29, 136]
	.loc 1 567 0
	adrp	x1, .LC18
	.loc 1 563 0
	str	x0, [x26, 56]
	.loc 1 567 0
	add	x2, x29, 112
	ldr	x0, [x21]
	add	x1, x1, :lo12:.LC18
	.loc 1 565 0
	strh	wzr, [x29, 112]
	strb	wzr, [x29, 114]
	.loc 1 567 0
	bl	spl_get_current_slot
.LVL186:
	cbnz	w0, .L81
	.loc 1 568 0
	ldr	x0, [x29, 136]
	add	x1, x29, 112
	bl	spl_ab_bootargs_append_slot
.LVL187:
	b	.L81
.L82:
.LBE66:
	.loc 1 587 0
	ldr	x0, [x23, x20, lsl 3]
	ldr	x1, [x29, 96]
	bl	strcmp
.LVL188:
	cbnz	w0, .L81
	.loc 1 592 0
	ldr	x0, [x29, 136]
	str	x0, [x26, 40]
	b	.L81
.LVL189:
.L86:
	.loc 1 512 0
	mov	w19, -5
	b	.L73
.LVL190:
.L87:
	.loc 1 521 0
	mov	w19, -19
	b	.L73
.LVL191:
.L88:
	mov	w19, w0
.LVL192:
	b	.L73
.LVL193:
.L89:
	.loc 1 556 0
	mov	w19, w0
	b	.L73
	.cfi_endproc
.LFE229:
	.size	spl_internal_load_kernel_fit, .-spl_internal_load_kernel_fit
	.section	.text.rk_meta_bootargs_append,"ax",@progbits
	.align	2
	.weak	rk_meta_bootargs_append
	.type	rk_meta_bootargs_append, %function
rk_meta_bootargs_append:
.LFB213:
	.loc 1 58 0
	.cfi_startproc
.LVL194:
	ret
	.cfi_endproc
.LFE213:
	.size	rk_meta_bootargs_append, .-rk_meta_bootargs_append
	.section	.text.fit_rollback_index_verify,"ax",@progbits
	.align	2
	.weak	fit_rollback_index_verify
	.type	fit_rollback_index_verify, %function
fit_rollback_index_verify:
.LFB214:
	.loc 1 62 0
	.cfi_startproc
.LVL195:
	.loc 1 63 0
	mov	w0, -1
.LVL196:
	str	w0, [x2]
	.loc 1 64 0
	str	w0, [x3]
	.loc 1 67 0
	mov	w0, 0
	ret
	.cfi_endproc
.LFE214:
	.size	fit_rollback_index_verify, .-fit_rollback_index_verify
	.section	.text.spl_ab_decrease_reset,"ax",@progbits
	.align	2
	.weak	spl_ab_decrease_reset
	.type	spl_ab_decrease_reset, %function
spl_ab_decrease_reset:
.LFB215:
	.loc 1 71 0
	.cfi_startproc
.LVL197:
	.loc 1 74 0
	mov	w0, -1
.LVL198:
	ret
	.cfi_endproc
.LFE215:
	.size	spl_ab_decrease_reset, .-spl_ab_decrease_reset
	.section	.text.spl_ab_decrease_tries,"ax",@progbits
	.align	2
	.weak	spl_ab_decrease_tries
	.type	spl_ab_decrease_tries, %function
spl_ab_decrease_tries:
.LFB216:
	.loc 1 77 0
	.cfi_startproc
.LVL199:
	.loc 1 79 0
	mov	w0, 0
.LVL200:
	ret
	.cfi_endproc
.LFE216:
	.size	spl_ab_decrease_tries, .-spl_ab_decrease_tries
	.section	.text.spl_fit_standalone_release,"ax",@progbits
	.align	2
	.weak	spl_fit_standalone_release
	.type	spl_fit_standalone_release, %function
spl_fit_standalone_release:
.LFB226:
	.loc 1 438 0
	.cfi_startproc
.LVL201:
	.loc 1 440 0
	mov	w0, 0
.LVL202:
	ret
	.cfi_endproc
.LFE226:
	.size	spl_fit_standalone_release, .-spl_fit_standalone_release
	.section	.text.spl_kernel_partition,"ax",@progbits
	.align	2
	.weak	spl_kernel_partition
	.type	spl_kernel_partition, %function
spl_kernel_partition:
.LFB228:
	.loc 1 494 0
	.cfi_startproc
.LVL203:
	.loc 1 496 0
	adrp	x0, .LC20
.LVL204:
	add	x0, x0, :lo12:.LC20
	ret
	.cfi_endproc
.LFE228:
	.size	spl_kernel_partition, .-spl_kernel_partition
	.section	.text.spl_load_simple_fit,"ax",@progbits
	.align	2
	.global	spl_load_simple_fit
	.type	spl_load_simple_fit, %function
spl_load_simple_fit:
.LFB232:
	.loc 1 898 0
	.cfi_startproc
.LVL205:
	stp	x29, x30, [sp, -352]!
	.cfi_def_cfa_offset 352
	.cfi_offset 29, -352
	.cfi_offset 30, -344
	add	x29, sp, 0
	.cfi_def_cfa_register 29
	stp	x27, x28, [sp, 80]
	.cfi_offset 27, -272
	.cfi_offset 28, -264
	mov	x27, x3
	stp	x21, x22, [sp, 32]
	.cfi_offset 21, -320
	.cfi_offset 22, -312
	mov	x21, x1
	stp	x23, x24, [sp, 48]
	.cfi_offset 23, -304
	.cfi_offset 24, -296
	mov	x23, x2
.LVL206:
	stp	x19, x20, [sp, 16]
.LBB82:
.LBB83:
.LBB84:
	.loc 1 845 0
	adrp	x28, .LC30
.LBE84:
.LBE83:
.LBE82:
	.loc 1 898 0
	stp	x25, x26, [sp, 64]
	.cfi_offset 19, -336
	.cfi_offset 20, -328
	.cfi_offset 25, -288
	.cfi_offset 26, -280
	.loc 1 898 0
	mov	x19, x0
	.loc 1 903 0
	mov	w26, 0
.LBB98:
.LBB95:
.LBB91:
.LBB85:
.LBB86:
	.loc 1 413 0
	add	x0, x28, :lo12:.LC30
.LVL207:
	str	x0, [x29, 144]
.LVL208:
.L136:
.LBE86:
.LBE85:
.LBE91:
.LBE95:
.LBE98:
	.loc 1 904 0
	cmp	w26, 1
	bne	.L99
	.loc 1 906 0
	ldr	w1, [x21, 16]
	mov	w0, 2097152
	sdiv	w0, w0, w1
	.loc 1 905 0
	add	x23, x23, x0, sxtw
.LVL209:
	.loc 1 907 0
	adrp	x0, .LC21
	mov	x1, x23
	add	x0, x0, :lo12:.LC21
	bl	printf
.LVL210:
	.loc 1 908 0
	ldr	x4, [x21, 32]
	mov	x3, x27
	mov	x2, 1
	mov	x1, x23
	mov	x0, x21
	blr	x4
.LVL211:
	cmp	x0, 1
	beq	.L99
	.loc 1 909 0
	adrp	x0, .LC22
	add	x0, x0, :lo12:.LC22
.L177:
	.loc 1 915 0
	bl	printf
.LVL212:
.L100:
	.loc 1 903 0 discriminator 2
	add	w26, w26, 1
.LVL213:
	cmp	w26, 2
	beq	.L135
	b	.L136
.L99:
.LVL214:
	ldr	w0, [x27]
	.loc 1 914 0
	mov	w1, 65261
	movk	w1, 0xd00d, lsl 16
	rev	w0, w0
.LVL215:
	cmp	w0, w1
	beq	.L101
	.loc 1 915 0
	adrp	x0, .LC23
	add	x0, x0, :lo12:.LC23
	b	.L177
.L101:
	.loc 1 919 0
	ldr	w0, [x19, 68]
	cmp	w0, 2
	bne	.L102
	.loc 1 925 0
	ldr	x0, [x21]
	bl	spl_ab_decrease_tries
.LVL216:
.L102:
.LBB99:
.LBB96:
	.loc 1 681 0
	add	x3, x29, 172
	mov	x2, x27
	mov	x1, x23
	mov	x0, x21
	bl	spl_fit_load_blob
.LVL217:
	mov	x20, x0
.LVL218:
	.loc 1 682 0
	cbz	x0, .L100
	.loc 1 688 0
	adrp	x1, .LC16
	add	x1, x1, :lo12:.LC16
	bl	fdt_path_offset
.LVL219:
	mov	w24, w0
.LVL220:
	.loc 1 689 0
	tbnz	w0, #31, .L100
	.loc 1 695 0
	bl	fit_board_verify_required_sigs
.LVL221:
	.loc 1 705 0
	mov	x1, 0
	mov	x0, x20
	bl	fit_conf_get_node
.LVL222:
	.loc 1 706 0
	cmp	w0, 0
	bgt	.L104
	.loc 1 707 0
	adrp	x0, .LC13
.LVL223:
	add	x0, x0, :lo12:.LC13
	b	.L177
.LVL224:
.L104:
	.loc 1 711 0
	mov	w1, w0
	mov	x0, x20
.LVL225:
	bl	fit_config_verify
.LVL226:
	.loc 1 712 0
	cbz	w0, .L106
	.loc 1 713 0
	mov	w1, w0
	adrp	x0, .LC14
.LVL227:
	add	x0, x0, :lo12:.LC14
.L178:
	.loc 1 724 0
	bl	printf
.LVL228:
	b	.L100
.LVL229:
.L106:
	.loc 1 716 0
	adrp	x0, .LC15
.LVL230:
	add	x0, x0, :lo12:.LC15
	bl	printf
.LVL231:
	.loc 1 721 0
	mov	w1, 32770
	add	x3, x29, 180
	add	x2, x29, 176
	movk	w1, 0xf1de, lsl 16
	mov	x0, x20
	bl	fit_rollback_index_verify
.LVL232:
	mov	w25, w0
.LVL233:
	.loc 1 723 0
	cbz	w0, .L107
	.loc 1 724 0
	mov	w1, w0
	adrp	x0, .LC24
.LVL234:
	add	x0, x0, :lo12:.LC24
	b	.L178
.LVL235:
.L107:
	.loc 1 726 0
	ldp	w1, w2, [x29, 176]
	cmp	w1, w2
	bcs	.L108
	.loc 1 727 0
	adrp	x0, .LC25
.LVL236:
	add	x0, x0, :lo12:.LC25
	bl	printf
.LVL237:
	b	.L100
.LVL238:
.L108:
	.loc 1 733 0
	cmn	w1, #1
	bne	.L109
	cmn	w2, #1
	beq	.L110
.L109:
	.loc 1 734 0
	adrp	x0, .LC26
.LVL239:
	add	x0, x0, :lo12:.LC26
	bl	printf
.LVL240:
.L110:
	.loc 1 746 0
	adrp	x0, .LC27
	add	x0, x0, :lo12:.LC27
.LBE96:
.LBE99:
	.loc 1 903 0
	mov	w22, 0
.LBB100:
.LBB97:
	.loc 1 746 0
	str	x0, [x29, 152]
	.loc 1 765 0
	adrp	x0, .LC28
	add	x0, x0, :lo12:.LC28
	str	x0, [x29, 136]
.LVL241:
.L114:
	.loc 1 746 0
	ldr	x2, [x29, 152]
	mov	w3, w22
	mov	w1, w24
	mov	x0, x20
	bl	spl_fit_get_image_node
.LVL242:
	mov	w6, w0
.LVL243:
	.loc 1 748 0
	tbnz	w0, #31, .L111
	.loc 1 751 0
	ldrsw	x3, [x29, 172]
	mov	w4, w0
	add	x5, x29, 216
	mov	x2, x20
	mov	x1, x23
	mov	x0, x21
.LVL244:
	str	w6, [x29, 132]
	bl	spl_load_fit_image
.LVL245:
	.loc 1 753 0
	cbnz	w0, .L100
	.loc 1 756 0
	ldr	w6, [x29, 132]
	add	x2, x29, 184
	mov	x0, x20
.LVL246:
	mov	w1, w6
	bl	fit_get_desc
.LVL247:
	.loc 1 757 0
	cbnz	w0, .L100
	.loc 1 760 0
	ldr	x0, [x29, 240]
.LVL248:
	cmn	x0, #1
	bne	.L112
	.loc 1 761 0
	ldr	x0, [x29, 232]
	str	x0, [x29, 240]
.L112:
	.loc 1 763 0
	ldr	x0, [x29, 184]
	ldr	x1, [x29, 240]
	bl	spl_fit_standalone_release
.LVL249:
	.loc 1 764 0
	cbz	w0, .L113
	.loc 1 765 0
	mov	w2, w0
	ldr	x1, [x29, 184]
	ldr	x0, [x29, 136]
.LVL250:
	bl	printf
.LVL251:
.L113:
	.loc 1 745 0
	add	w22, w22, 1
.LVL252:
	b	.L114
.LVL253:
.L111:
	.loc 1 779 0
	mov	w3, 0
	adrp	x2, .LC29
	mov	w1, w24
	add	x2, x2, :lo12:.LC29
	mov	x0, x20
	bl	spl_fit_get_image_node
.LVL254:
	mov	w6, w0
.LVL255:
	.loc 1 785 0
	tbz	w0, #31, .L140
	.loc 1 787 0
	mov	w3, 0
	add	x2, x28, :lo12:.LC30
	mov	w1, w24
	mov	x0, x20
.LVL256:
	bl	spl_fit_get_image_node
.LVL257:
	mov	w6, w0
.LVL258:
	.loc 1 795 0
	ldr	w0, [x19, 68]
.LVL259:
	cmp	w0, 2
	bne	.L116
	.loc 1 797 0
	mov	w0, 87
	str	w6, [x29, 152]
	movk	w0, 0x5441, lsl 16
	bl	atags_get_tag
.LVL260:
	.loc 1 798 0
	ldr	w6, [x29, 152]
	cbz	x0, .L116
	.loc 1 799 0
	ldr	w22, [x0, 16]
	cmp	w22, 1
	bne	.L116
	.loc 1 800 0
	mov	w0, 5
.LVL261:
	strb	w0, [x19, 8]
.LVL262:
.L117:
.LBB92:
	.loc 1 843 0
	strb	wzr, [x29, 171]
	.loc 1 845 0
	mov	w3, w22
	add	x2, x28, :lo12:.LC30
	mov	w1, w24
	mov	x0, x20
	bl	spl_fit_get_image_node
.LVL263:
	mov	w4, w0
.LVL264:
	.loc 1 846 0
	tbnz	w0, #31, .L120
.LVL265:
.LBB88:
.LBB89:
	.loc 1 433 0
	mov	w1, w0
	str	w4, [x29, 152]
	add	x2, x29, 171
.LVL266:
	mov	x0, x20
.LVL267:
	bl	fit_image_get_os
.LVL268:
.LBE89:
.LBE88:
	.loc 1 853 0
	ldr	w0, [x19, 68]
	ldr	w4, [x29, 152]
	cmp	w0, 2
	bne	.L121
	ldrb	w0, [x29, 171]
	cmp	w0, 17
	beq	.L129
.L121:
	.loc 1 857 0
	ldrsw	x3, [x29, 172]
	add	x5, x29, 216
	mov	x2, x20
	mov	x1, x23
	mov	x0, x21
	bl	spl_load_fit_image
.LVL269:
	.loc 1 859 0
	tbnz	w0, #31, .L129
	.loc 1 862 0
	ldrb	w0, [x29, 171]
.LVL270:
	cmp	w0, 17
	bne	.L123
	.loc 1 863 0
	ldrsw	x5, [x29, 172]
	mov	w4, w24
	mov	x3, x20
	mov	x2, x23
	mov	x1, x21
	add	x0, x29, 216
	bl	spl_fit_append_fdt
.LVL271:
	.loc 1 865 0
	tbnz	w0, #31, .L100
	.loc 1 867 0
	ldr	x0, [x29, 272]
.LVL272:
	str	x0, [x19, 56]
.L123:
	.loc 1 874 0
	ldr	x0, [x19, 24]
	cmn	x0, #1
	bne	.L125
	.loc 1 875 0
	ldr	x0, [x29, 240]
	.loc 1 874 0
	cmn	x0, #1
	beq	.L125
	.loc 1 876 0
	str	x0, [x19, 24]
.L125:
	.loc 1 879 0
	ldr	x0, [x19, 56]
	str	x0, [x29, 152]
.LVL273:
	cbz	x0, .L129
.LVL274:
.LBB90:
.LBB87:
	.loc 1 413 0
	ldr	x1, [x29, 144]
	add	x3, x29, 192
	mov	w2, w22
	mov	x0, x20
.LVL275:
	bl	spl_fit_get_image_name.isra.0
.LVL276:
	.loc 1 415 0
	tbnz	w0, #31, .L129
	.loc 1 418 0
	ldr	x2, [x29, 144]
	mov	w3, w22
	mov	w1, w24
	mov	x0, x20
.LVL277:
	bl	spl_fit_get_image_node
.LVL278:
	mov	w7, w0
.LVL279:
	.loc 1 420 0
	ldp	x10, x5, [x29, 232]
	.loc 1 422 0
	mov	w1, w0
	.loc 1 420 0
	ldr	w4, [x29, 288]
	.loc 1 422 0
	mov	x3, 0
	.loc 1 420 0
	ldr	x8, [x29, 192]
	.loc 1 422 0
	adrp	x2, .LC31
	stp	w4, w7, [x29, 128]
	add	x2, x2, :lo12:.LC31
	.loc 1 420 0
	stp	x8, x10, [x29, 104]
	.loc 1 422 0
	mov	x0, x20
.LVL280:
	.loc 1 420 0
	str	x5, [x29, 120]
	.loc 1 422 0
	bl	fdt_getprop
.LVL281:
	mov	x6, x0
	.loc 1 423 0
	ldr	w7, [x29, 132]
	mov	x3, 0
	.loc 1 422 0
	str	x6, [x29, 136]
	.loc 1 423 0
	adrp	x2, .LC32
	mov	w1, w7
	add	x2, x2, :lo12:.LC32
	mov	x0, x20
	bl	fdt_getprop
.LVL282:
	.loc 1 420 0
	mov	x7, x0
	ldp	x8, x10, [x29, 104]
	mov	w1, w22
	ldr	w4, [x29, 128]
	ldr	x5, [x29, 120]
	mov	x3, x10
	ldr	x6, [x29, 136]
	mov	x2, x8
	ldr	x0, [x29, 152]
	bl	fdt_record_loadable
.LVL283:
.L129:
.LBE87:
.LBE90:
.LBE92:
	.loc 1 842 0
	add	w22, w22, 1
.LVL284:
	b	.L117
.LVL285:
.L116:
	.loc 1 807 0
	tbnz	w6, #31, .L100
	mov	w22, 1
.LVL286:
.L115:
	.loc 1 814 0
	ldrsw	x3, [x29, 172]
	mov	w4, w6
	str	w6, [x29, 152]
	mov	x5, x19
	mov	x2, x20
	mov	x1, x23
	mov	x0, x21
	bl	spl_load_fit_image
.LVL287:
	.loc 1 816 0
	ldr	w6, [x29, 152]
	cbnz	w0, .L100
.LVL288:
.LBB93:
.LBB94:
	.loc 1 433 0
	add	x2, x19, 8
.LVL289:
	mov	w1, w6
	mov	x0, x20
.LVL290:
	bl	fit_image_get_os
.LVL291:
.LBE94:
.LBE93:
	.loc 1 823 0
	cbz	w0, .L118
	.loc 1 827 0
	mov	w0, 17
	strb	w0, [x19, 8]
.L118:
	.loc 1 831 0
	ldrb	w0, [x19, 8]
	cmp	w0, 17
	bne	.L117
	.loc 1 832 0
	ldrsw	x5, [x29, 172]
	mov	w4, w24
	mov	x3, x20
	mov	x2, x23
	mov	x1, x21
	mov	x0, x19
	bl	spl_fit_append_fdt
.LVL292:
	.loc 1 834 0
	tbz	w0, #31, .L117
	b	.L100
.LVL293:
.L140:
	.loc 1 770 0
	mov	w22, 0
	b	.L115
.LVL294:
.L120:
	.loc 1 890 0
	ldr	x0, [x19, 24]
.LVL295:
	sub	x0, x0, #1
	cmn	x0, #3
	bls	.L128
	.loc 1 891 0
	ldr	x0, [x19, 16]
	str	x0, [x19, 24]
.L128:
.LVL296:
.LBE97:
.LBE100:
.LBB101:
.LBB102:
	.loc 1 622 0
	adrp	x0, .LC10
	add	x0, x0, :lo12:.LC10
	str	x0, [x29, 192]
	adrp	x0, .LC19
	add	x0, x0, :lo12:.LC19
	str	x0, [x29, 200]
	adrp	x0, .LC17
	add	x0, x0, :lo12:.LC17
	.loc 1 623 0
	str	wzr, [x29, 184]
	.loc 1 622 0
	str	x0, [x29, 208]
	.loc 1 626 0
	ldr	w0, [x19, 68]
	cmp	w0, 2
	bne	.L98
.LVL297:
	.loc 1 634 0
	mov	x1, x21
	mov	x0, x19
	bl	spl_kernel_partition
.LVL298:
	.loc 1 635 0
	mov	x1, x0
	ldr	x0, [x21]
.LVL299:
	add	x2, x29, 216
	bl	part_get_info_by_name
.LVL300:
	tbz	w0, #31, .L130
	.loc 1 636 0
	adrp	x1, .LANCHOR1
	adrp	x0, .LC33
	add	x1, x1, :lo12:.LANCHOR1
	add	x0, x0, :lo12:.LC33
	bl	printf
.LVL301:
.L135:
.LBE102:
.LBE101:
	.loc 1 940 0
	ldr	w0, [x19, 68]
	cmp	w0, 2
	bne	.L138
	.loc 1 941 0
	mov	x3, 0
	mov	w2, 0
	mov	w1, 0
	mov	x0, 0
	bl	do_reset
.LVL302:
.L179:
	.loc 1 943 0
	mov	w25, w0
	b	.L98
.LVL303:
.L130:
.LBB104:
.LBB103:
	.loc 1 643 0
	ldr	x2, [x29, 216]
	add	x5, x29, 184
	mov	w4, 3
	add	x3, x29, 192
	mov	x1, x21
	mov	x0, x19
	bl	spl_internal_load_kernel_fit
.LVL304:
	.loc 1 645 0
	tbnz	w0, #31, .L135
	.loc 1 649 0
	ldr	w0, [x29, 184]
.LVL305:
	cbz	w0, .L98
	.loc 1 651 0
	ldr	x0, [x21]
	adrp	x1, .LC34
	add	x2, x29, 216
	add	x1, x1, :lo12:.LC34
	bl	part_get_info_by_name
.LVL306:
	tbz	w0, #31, .L133
	.loc 1 652 0
	ldr	x0, [x21]
	adrp	x1, .LC35
	add	x2, x29, 216
	add	x1, x1, :lo12:.LC35
	bl	part_get_info_by_name
.LVL307:
	.loc 1 651 0
	tbz	w0, #31, .L133
	.loc 1 653 0
	adrp	x0, .LC36
	add	x0, x0, :lo12:.LC36
	bl	printf
.LVL308:
	b	.L135
.L133:
	.loc 1 656 0
	ldr	x20, [x29, 216]
.LVL309:
	.loc 1 660 0
	adrp	x0, .LC37
	add	x0, x0, :lo12:.LC37
	mov	x1, x20
	bl	printf
.LVL310:
	.loc 1 661 0
	add	x5, x29, 184
	mov	w4, 1
	add	x3, x29, 208
	mov	x2, x20
	mov	x1, x21
	mov	x0, x19
	bl	spl_internal_load_kernel_fit
.LVL311:
	mov	w25, w0
.LVL312:
.LBE103:
.LBE104:
	.loc 1 939 0
	cbnz	w0, .L135
.LVL313:
.L98:
	.loc 1 947 0
	mov	w0, w25
	ldp	x19, x20, [sp, 16]
.LVL314:
	ldp	x21, x22, [sp, 32]
.LVL315:
	ldp	x23, x24, [sp, 48]
.LVL316:
	ldp	x25, x26, [sp, 64]
.LVL317:
	ldp	x27, x28, [sp, 80]
.LVL318:
	ldp	x29, x30, [sp], 352
	.cfi_remember_state
	.cfi_restore 30
	.cfi_restore 29
	.cfi_restore 27
	.cfi_restore 28
	.cfi_restore 25
	.cfi_restore 26
	.cfi_restore 23
	.cfi_restore 24
	.cfi_restore 21
	.cfi_restore 22
	.cfi_restore 19
	.cfi_restore 20
	.cfi_def_cfa 31, 0
	ret
.LVL319:
.L138:
	.cfi_restore_state
	.loc 1 943 0
	ldr	x0, [x21]
	bl	spl_ab_decrease_reset
.LVL320:
	b	.L179
	.cfi_endproc
.LFE232:
	.size	spl_load_simple_fit, .-spl_load_simple_fit
	.section	.rodata.__func__.7298,"a",@progbits
	.align	3
	.set	.LANCHOR0,. + 0
	.type	__func__.7298, %object
	.size	__func__.7298, 29
__func__.7298:
	.string	"spl_internal_load_kernel_fit"
	.section	.rodata.__func__.7315,"a",@progbits
	.align	3
	.set	.LANCHOR1,. + 0
	.type	__func__.7315, %object
	.size	__func__.7315, 20
__func__.7315:
	.string	"spl_load_kernel_fit"
	.section	.rodata.spl_fit_append_fdt.str1.1,"aMS",@progbits,1
.LC10:
	.string	"fdt"
	.section	.rodata.spl_fit_get_image_name.isra.0.str1.1,"aMS",@progbits,1
.LC0:
	.string	"No matching DT out of these options:\n"
.LC1:
	.string	"description"
.LC2:
	.string	"   %s\n"
	.section	.rodata.spl_internal_load_kernel_fit.str1.1,"aMS",@progbits,1
.LC12:
	.string	"%s: invalid fit magic\n"
.LC13:
	.string	"No default config node\n"
.LC14:
	.string	"fit verify configure failed, ret=%d\n"
.LC15:
	.string	"\n"
.LC16:
	.string	"/images"
.LC17:
	.string	"ramdisk"
.LC18:
	.string	"misc"
.LC19:
	.string	"kernel"
	.section	.rodata.spl_kernel_partition.str1.1,"aMS",@progbits,1
.LC20:
	.string	"boot"
	.section	.rodata.spl_load_fit_image.str1.1,"aMS",@progbits,1
.LC3:
	.string	"## Preload the image OK.\n"
.LC4:
	.string	"Cannot get image data/size\n"
.LC5:
	.string	"compression"
.LC6:
	.string	"## Checking %s 0x%08lx (%s @0x%08lx) ... "
.LC7:
	.string	"## Checking %s 0x%08lx ... "
.LC8:
	.string	"OK\n"
.LC9:
	.string	"entry"
	.section	.rodata.spl_load_meta.str1.1,"aMS",@progbits,1
.LC11:
	.string	"No load cfg image.\n"
	.section	.rodata.spl_load_simple_fit.str1.1,"aMS",@progbits,1
.LC21:
	.string	"Trying fit image at 0x%lx sector\n"
.LC22:
	.string	"IO error\n"
.LC23:
	.string	"Not fit magic\n"
.LC24:
	.string	"fit failed to get rollback index, ret=%d\n"
.LC25:
	.string	"fit reject rollback: %d < %d(min)\n"
.LC26:
	.string	"rollback index: %d >= %d(min), OK\n"
.LC27:
	.string	"standalone"
.LC28:
	.string	"%s: start standalone fail, ret=%d\n"
.LC29:
	.string	"firmware"
.LC30:
	.string	"loadables"
.LC31:
	.string	"type"
.LC32:
	.string	"os"
.LC33:
	.string	"%s: no partition\n"
.LC34:
	.string	"rootfs"
.LC35:
	.string	"system"
.LC36:
	.string	"Neither rootfs nor system_a/b partition\n"
.LC37:
	.string	"Trying ramdisk fit image at 0x%lx sector\n"
	.text
.Letext0:
	.file 3 "include/common.h"
	.file 4 "./arch/arm/include/asm/types.h"
	.file 5 "./arch/arm/include/asm/posix_types.h"
	.file 6 "include/linux/types.h"
	.file 7 "include/errno.h"
	.file 8 "include/linux/string.h"
	.file 9 "include/efi.h"
	.file 10 "include/blk.h"
	.file 11 "include/ide.h"
	.file 12 "include/part.h"
	.file 13 "include/flash.h"
	.file 14 "include/lmb.h"
	.file 15 "include/asm-generic/u-boot.h"
	.file 16 "./arch/arm/include/asm/u-boot-arm.h"
	.file 17 "include/linux/libfdt_env.h"
	.file 18 "include/linux/../../scripts/dtc/libfdt/fdt.h"
	.file 19 "include/linux/libfdt.h"
	.file 20 "include/u-boot/sha1.h"
	.file 21 "include/u-boot/sha256.h"
	.file 22 "include/net.h"
	.file 23 "./arch/arm/include/asm/spl.h"
	.file 24 "include/spl.h"
	.file 25 "include/malloc.h"
	.file 26 "./arch/arm/include/asm/arch/rk_atags.h"
	.file 27 "include/linux/byteorder/swab.h"
	.file 28 "include/linux/../../scripts/dtc/libfdt/libfdt.h"
	.file 29 "include/fdt_support.h"
	.file 30 "include/stdio.h"
	.file 31 "include/command.h"
	.section	.note.GNU-stack,"",@progbits
